; Function Attrs: nounwind uwtable
define ptr @l_panic___at_Lean_Meta_Grind_Arith_Cutsat_resolveRatDiseq___spec__1___boxed(ptr noundef %0, ptr noundef %1, ptr noundef %2, ptr noundef %3, ptr noundef %4, ptr noundef %5, ptr noundef %6, ptr noundef %7, ptr noundef %8, ptr noundef %9, ptr noundef %10, ptr noundef %11) local_unnamed_addr #1 {
  %13 = ptrtoint ptr %1 to i64
  %14 = and i64 %13, 1
  %.not = icmp eq i64 %14, 0
  br i1 %.not, label %15, label %lean_dec.exit

15:                                               ; preds = %12
  %16 = load i32, ptr %1, align 4, !tbaa !6
  %17 = icmp sgt i32 %16, 1
  br i1 %17, label %18, label %20, !prof !5

18:                                               ; preds = %15
  %19 = add nsw i32 %16, -1
  store i32 %19, ptr %1, align 4, !tbaa !6
  br label %lean_dec.exit

20:                                               ; preds = %15
  %.not.i = icmp eq i32 %16, 0
  br i1 %.not.i, label %lean_dec.exit, label %21

21:                                               ; preds = %20
  tail call void @lean_dec_ref_cold(ptr noundef nonnull %1) #6
  br label %lean_dec.exit

lean_dec.exit:                                    ; preds = %21, %20, %18, %12
  %22 = load ptr, ptr @l_panic___at_Lean_Meta_Grind_Arith_Cutsat_resolveRatDiseq___spec__1___closed__7, align 8, !tbaa !11
  %23 = tail call ptr @lean_panic_fn(ptr noundef %22, ptr noundef %0) #6
  %24 = and i64 %13, 510
  %25 = or disjoint i64 %24, 1
  %26 = inttoptr i64 %25 to ptr
  %27 = tail call ptr @lean_apply_11(ptr noundef %23, ptr noundef nonnull %26, ptr noundef %2, ptr noundef %3, ptr noundef %4, ptr noundef %5, ptr noundef %6, ptr noundef %7, ptr noundef %8, ptr noundef %9, ptr noundef %10, ptr noundef %11) #6
  ret ptr %27
}